
bin/e_prog_4.elf:     file format elf32-epiphany


Disassembly of section ivt_reset:

00000000 <_start>:
   0:	80e8 0000 	b 100 <normal_start>

Disassembly of section workgroup_cfg:

00000028 <workgroup_cfg>:
	...

Disassembly of section ext_mem_cfg:

00000050 <ext_mem_cfg>:
	...

Disassembly of section loader_cfg:

00000058 <loader_cfg>:
	...

Disassembly of section .reserved_crt0:

00000100 <normal_start>:
 100:	be0b 27f2 	mov sp,0x7ff0
 104:	a00b 3002 	movt sp,0x0
 108:	e00b 2002 	mov fp,0x0
 10c:	648b 0012 	mov r3,0x124
 110:	600b 1002 	movt r3,0x0
 114:	0d52      	jalr r3
 116:	01a2      	nop
 118:	0fe2      	trap 0x3
 11a:	01a2      	nop
 11c:	2912      	movfs r1,pc
 11e:	0552      	jalr r1
 120:	01a2      	nop

Disassembly of section .shared_dram:

8f000000 <the_core_id>:
8f000000:	0000      	beq 8f000000 <the_core_id>
	...

Disassembly of section .text:

00000100 <fun1>:
 100:	f55c 2700 	str fp,[sp],-0x2
 104:	f4ef 2402 	mov fp,sp
 108:	251f 0032 	movfs r1,coreid
 10c:	000b 0002 	mov r0,0x0
 110:	000b 18f2 	movt r0,0x8f00
 114:	2054      	str r1,[r0]
 116:	01a2      	nop
 118:	f54c 2400 	ldr fp,[sp,+0x2]
 11c:	b41b 2401 	add sp,sp,8
 120:	194f 0402 	rts

00000124 <main>:
 124:	d4fc 2700 	strd lr,[sp],-0x1
 128:	f41b 2401 	add fp,sp,8
 12c:	0a0b 0012 	mov r0,0x150
 130:	000b 1002 	movt r0,0x0
 134:	0152      	jalr r0
 136:	20e2      	mov r1,r0
 138:	000b 0002 	mov r0,0x0
 13c:	000b 18f2 	movt r0,0x8f00
 140:	2054      	str r1,[r0]
 142:	01a2      	nop
 144:	d4ec 2400 	ldrd lr,[sp,+0x1]
 148:	b41b 2401 	add sp,sp,8
 14c:	194f 0402 	rts

00000150 <e_get_coreid>:
 150:	051f 0032 	movfs r0,coreid
 154:	194f 0402 	rts
